; Function Attrs: nounwind uwtable
define dso_local i64 @pg_stat_get_db_idle_in_transaction_time(ptr noundef readonly captures(none) %0) local_unnamed_addr #0 {
  %2 = getelementptr inbounds nuw i8, ptr %0, i64 32
  %3 = load i64, ptr %2, align 8
  %4 = trunc i64 %3 to i32
  %5 = tail call ptr @pgstat_fetch_stat_dbentry(i32 noundef %4) #9
  %6 = icmp eq ptr %5, null
  br i1 %6, label %13, label %7

7:                                                ; preds = %1
  %8 = getelementptr inbounds nuw i8, ptr %5, i64 208
  %9 = load i64, ptr %8, align 8
  %10 = sitofp i64 %9 to double
  %11 = fdiv double %10, 1.000000e+03
  %12 = bitcast double %11 to i64
  br label %13

13:                                               ; preds = %1, %7
  %.0 = phi i64 [ %12, %7 ], [ 0, %1 ]
  ret i64 %.0
}